target datalayout = "e-m:e-p270:32:32-p271:32:32-p272:64:64-i64:64-i128:128-f80:128-n8:16:32:64-S128"
target triple = "x86_64-pc-linux-gnu"

%struct.ByteswapImpl = type { i8 }

; Function Attrs: mustprogress nounwind uwtable
define internal noundef i64 @_ZL14alignment_maskImTnNSt9enable_ifIXcvbsr3std11is_integralIT_EE5valueEiE4typeELi0EES1_S1_(i64 noundef %0) #1 {
  %2 = alloca i64, align 8
  store i64 %0, ptr %2, align 8
  %3 = load i64, ptr %2, align 8
  %4 = sub i64 %3, 1
  ret i64 %4
}

; Function Attrs: mustprogress nounwind uwtable
define linkonce_odr hidden noundef zeroext i1 @_Z10is_alignedImmTnNSt9enable_ifIXcvbsr3std11is_integralIT_EE5valueEiE4typeELi0EEbS1_T0_(i64 noundef %0, i64 noundef %1) #1 comdat {
  %3 = alloca i64, align 8
  %4 = alloca i64, align 8
  store i64 %0, ptr %3, align 8
  store i64 %1, ptr %4, align 8
  %5 = load i64, ptr %3, align 8
  %6 = load i64, ptr %4, align 8
  %7 = call noundef i64 @_ZL14alignment_maskImTnNSt9enable_ifIXcvbsr3std11is_integralIT_EE5valueEiE4typeELi0EES1_S1_(i64 noundef %6)
  %8 = and i64 %5, %7
  %9 = icmp eq i64 %8, 0
  ret i1 %9
}

; Function Attrs: mustprogress nounwind uwtable
define linkonce_odr hidden noundef zeroext i1 @_Z10is_alignedIKvmEbPT_T0_(ptr noundef %0, i64 noundef %1) #1 comdat {
  %3 = alloca ptr, align 8
  %4 = alloca i64, align 8
  store ptr %0, ptr %3, align 8
  store i64 %1, ptr %4, align 8
  %5 = load ptr, ptr %3, align 8
  %6 = ptrtoint ptr %5 to i64
  %7 = load i64, ptr %4, align 8
  %8 = call noundef zeroext i1 @_Z10is_alignedImmTnNSt9enable_ifIXcvbsr3std11is_integralIT_EE5valueEiE4typeELi0EEbS1_T0_(i64 noundef %6, i64 noundef %7)
  ret i1 %8
}

; Function Attrs: mustprogress nounwind uwtable
define linkonce_odr hidden noundef zeroext i1 @_ZN6Endian31is_Java_byte_ordering_differentEv() #1 comdat align 2 {
  ret i1 true
}

; Function Attrs: mustprogress nounwind uwtable
define linkonce_odr hidden noundef zeroext i16 @_ZN5Bytes10get_nativeItEET_PKv(ptr noundef %0) #1 comdat align 2 {
  %2 = alloca ptr, align 8
  %3 = alloca i16, align 2
  store ptr %0, ptr %2, align 8
  %4 = load ptr, ptr %2, align 8
  %5 = call noundef zeroext i1 @_Z10is_alignedIKvmEbPT_T0_(ptr noundef %4, i64 noundef 2)
  br i1 %5, label %6, label %9

6:                                                ; preds = %1
  %7 = load ptr, ptr %2, align 8
  %8 = load i16, ptr %7, align 2
  store i16 %8, ptr %3, align 2
  br label %11

9:                                                ; preds = %1
  %10 = load ptr, ptr %2, align 8
  call void @llvm.memcpy.p0.p0.i64(ptr align 2 %3, ptr align 1 %10, i64 2, i1 false)
  br label %11

11:                                               ; preds = %9, %6
  %12 = load i16, ptr %3, align 2
  ret i16 %12
}

; Function Attrs: mustprogress nounwind uwtable
define linkonce_odr hidden noundef zeroext i16 @_ZN5Bytes8get_JavaItEET_Ph(ptr noundef %0) #1 comdat align 2 {
  %2 = alloca ptr, align 8
  %3 = alloca i16, align 2
  store ptr %0, ptr %2, align 8
  %4 = load ptr, ptr %2, align 8
  %5 = call noundef zeroext i16 @_ZN5Bytes10get_nativeItEET_PKv(ptr noundef %4)
  store i16 %5, ptr %3, align 2
  %6 = call noundef zeroext i1 @_ZN6Endian31is_Java_byte_ordering_differentEv()
  br i1 %6, label %7, label %10

7:                                                ; preds = %1
  %8 = load i16, ptr %3, align 2
  %9 = call noundef zeroext i16 @_Z8byteswapItTnNSt9enable_ifIXcvbsr3std11is_integralIT_EE5valueEiE4typeELi0EES1_S1_(i16 noundef zeroext %8)
  store i16 %9, ptr %3, align 2
  br label %10

10:                                               ; preds = %7, %1
  %11 = load i16, ptr %3, align 2
  ret i16 %11
}

; Function Attrs: mustprogress nounwind uwtable
define linkonce_odr hidden noundef zeroext i16 @_ZN5Bytes11get_Java_u2EPh(ptr noundef %0) #1 comdat align 2 {
  %2 = alloca ptr, align 8
  store ptr %0, ptr %2, align 8
  %3 = load ptr, ptr %2, align 8
  %4 = call noundef zeroext i16 @_ZN5Bytes8get_JavaItEET_Ph(ptr noundef %3)
  ret i16 %4
}

; Function Attrs: mustprogress nounwind uwtable
define linkonce_odr hidden noundef zeroext i16 @_ZN12JfrBigEndian10read_bytesItEET_Ph(ptr noundef %0) #1 comdat align 2 {
  %2 = alloca ptr, align 8
  store ptr %0, ptr %2, align 8
  %3 = load ptr, ptr %2, align 8
  %4 = call noundef zeroext i16 @_ZN5Bytes11get_Java_u2EPh(ptr noundef %3)
  ret i16 %4
}

; Function Attrs: mustprogress nounwind uwtable
define linkonce_odr hidden noundef zeroext i16 @_ZNK12ByteswapImplItLm2EEclEt(ptr noundef nonnull align 1 dereferenceable(1) %0, i16 noundef zeroext %1) #1 comdat align 2 {
  %3 = alloca ptr, align 8
  %4 = alloca i16, align 2
  store ptr %0, ptr %3, align 8
  store i16 %1, ptr %4, align 2
  %5 = load i16, ptr %4, align 2
  %6 = call i16 @llvm.bswap.i16(i16 %5)
  ret i16 %6
}

; Function Attrs: mustprogress nounwind uwtable
define linkonce_odr hidden noundef i32 @_ZN12JfrBigEndian14read_unalignedIitEET_Ph(ptr noundef %0) #1 comdat align 2 {
  %2 = alloca ptr, align 8
  store ptr %0, ptr %2, align 8
  %3 = load ptr, ptr %2, align 8
  %4 = call noundef zeroext i16 @_ZN12JfrBigEndian10read_bytesItEET_Ph(ptr noundef %3)
  %5 = zext i16 %4 to i32
  ret i32 %5
}

; Function Attrs: mustprogress nounwind uwtable
define linkonce_odr hidden noundef zeroext i16 @_Z8byteswapItTnNSt9enable_ifIXcvbsr3std11is_integralIT_EE5valueEiE4typeELi0EES1_S1_(i16 noundef zeroext %0) #1 comdat {
  %2 = alloca i16, align 2
  %3 = alloca %struct.ByteswapImpl, align 1
  store i16 %0, ptr %2, align 2
  %4 = load i16, ptr %2, align 2
  %5 = call noundef zeroext i16 @_ZNK12ByteswapImplItLm2EEclEt(ptr noundef nonnull align 1 dereferenceable(1) %3, i16 noundef zeroext %4)
  ret i16 %5
}

; Function Attrs: mustprogress nounwind uwtable
define linkonce_odr hidden noundef zeroext i1 @_ZN12JfrBigEndian33platform_supports_unaligned_readsEv() #1 comdat align 2 {
  ret i1 true
}

; Function Attrs: mustprogress nounwind uwtable
define linkonce_odr hidden noundef zeroext i1 @_ZN12JfrBigEndian10is_alignedEPKvm(ptr noundef %0, i64 noundef %1) #1 comdat align 2 {
  %3 = alloca i1, align 1
  %4 = alloca ptr, align 8
  %5 = alloca i64, align 8
  store ptr %0, ptr %4, align 8
  store i64 %1, ptr %5, align 8
  %6 = load i64, ptr %5, align 8
  %7 = icmp eq i64 %6, 1
  br i1 %7, label %8, label %9

8:                                                ; preds = %2
  store i1 true, ptr %3, align 1
  br label %16

9:                                                ; preds = %2
  %10 = load ptr, ptr %4, align 8
  %11 = ptrtoint ptr %10 to i64
  %12 = load i64, ptr %5, align 8
  %13 = sub i64 %12, 1
  %14 = and i64 %11, %13
  %15 = icmp eq i64 %14, 0
  store i1 %15, ptr %3, align 1
  br label %16

16:                                               ; preds = %9, %8
  %17 = load i1, ptr %3, align 1
  ret i1 %17
}

; Function Attrs: mustprogress nounwind uwtable
define internal noundef i32 @_ZL21next_annotation_indexPhii(ptr noundef %0, i32 noundef %1, i32 noundef %2) #1 {
  %4 = alloca i32, align 4
  %5 = alloca ptr, align 8
  %6 = alloca i32, align 4
  %7 = alloca i32, align 4
  %8 = alloca i32, align 4
  store ptr %0, ptr %5, align 8
  store i32 %1, ptr %6, align 4
  store i32 %2, ptr %7, align 4
  %9 = load i32, ptr %7, align 4
  %10 = add nsw i32 %9, 2
  store i32 %10, ptr %7, align 4
  %11 = load i32, ptr %7, align 4
  %12 = add nsw i32 %11, 2
  store i32 %12, ptr %7, align 4
  %13 = load i32, ptr %6, align 4
  %14 = icmp sge i32 %12, %13
  br i1 %14, label %15, label %17

15:                                               ; preds = %3
  %16 = load i32, ptr %6, align 4
  store i32 %16, ptr %4, align 4
  br label %43

17:                                               ; preds = %3
  %18 = load ptr, ptr %5, align 8
  %19 = load i32, ptr %7, align 4
  %20 = sext i32 %19 to i64
  %21 = getelementptr inbounds i8, ptr %18, i64 %20
  %22 = getelementptr inbounds i8, ptr %21, i64 -2
  %23 = call noundef i32 @_ZN12JfrBigEndian4readIitEET_PKv(ptr noundef %22)
  store i32 %23, ptr %8, align 4
  br label %24

24:                                               ; preds = %34, %17
  %25 = load i32, ptr %8, align 4
  %26 = add nsw i32 %25, -1
  store i32 %26, ptr %8, align 4
  %27 = icmp sge i32 %26, 0
  br i1 %27, label %28, label %32

28:                                               ; preds = %24
  %29 = load i32, ptr %7, align 4
  %30 = load i32, ptr %6, align 4
  %31 = icmp slt i32 %29, %30
  br label %32

32:                                               ; preds = %28, %24
  %33 = phi i1 [ false, %24 ], [ %31, %28 ]
  br i1 %33, label %34, label %41

34:                                               ; preds = %32
  %35 = load i32, ptr %7, align 4
  %36 = add nsw i32 %35, 2
  store i32 %36, ptr %7, align 4
  %37 = load ptr, ptr %5, align 8
  %38 = load i32, ptr %6, align 4
  %39 = load i32, ptr %7, align 4
  %40 = call noundef i32 @_ZL21skip_annotation_valuePhii(ptr noundef %37, i32 noundef %38, i32 noundef %39)
  store i32 %40, ptr %7, align 4
  br label %24, !llvm.loop !28

41:                                               ; preds = %32
  %42 = load i32, ptr %7, align 4
  store i32 %42, ptr %4, align 4
  br label %43

43:                                               ; preds = %41, %15
  %44 = load i32, ptr %4, align 4
  ret i32 %44
}

; Function Attrs: mustprogress nounwind uwtable
define linkonce_odr hidden noundef i32 @_ZN12JfrBigEndian4readIitEET_PKv(ptr noundef %0) #1 comdat align 2 {
  %2 = alloca i32, align 4
  %3 = alloca ptr, align 8
  store ptr %0, ptr %3, align 8
  %4 = load ptr, ptr %3, align 8
  %5 = call noundef zeroext i1 @_ZN12JfrBigEndian10is_alignedEPKvm(ptr noundef %4, i64 noundef 2)
  br i1 %5, label %8, label %6

6:                                                ; preds = %1
  %7 = call noundef zeroext i1 @_ZN12JfrBigEndian33platform_supports_unaligned_readsEv()
  br i1 %7, label %8, label %13

8:                                                ; preds = %6, %1
  %9 = load ptr, ptr %3, align 8
  %10 = load i16, ptr %9, align 2
  %11 = call noundef zeroext i16 @_Z8byteswapItTnNSt9enable_ifIXcvbsr3std11is_integralIT_EE5valueEiE4typeELi0EES1_S1_(i16 noundef zeroext %10)
  %12 = zext i16 %11 to i32
  store i32 %12, ptr %2, align 4
  br label %16

13:                                               ; preds = %6
  %14 = load ptr, ptr %3, align 8
  %15 = call noundef i32 @_ZN12JfrBigEndian14read_unalignedIitEET_Ph(ptr noundef %14)
  store i32 %15, ptr %2, align 4
  br label %16

16:                                               ; preds = %13, %8
  %17 = load i32, ptr %2, align 4
  ret i32 %17
}

; Function Attrs: mustprogress nounwind uwtable
define internal noundef i32 @_ZL21skip_annotation_valuePhii(ptr noundef %0, i32 noundef %1, i32 noundef %2) #1 {
  %4 = alloca i32, align 4
  %5 = alloca ptr, align 8
  %6 = alloca i32, align 4
  %7 = alloca i32, align 4
  %8 = alloca i8, align 1
  %9 = alloca i32, align 4
  store ptr %0, ptr %5, align 8
  store i32 %1, ptr %6, align 4
  store i32 %2, ptr %7, align 4
  %10 = load i32, ptr %7, align 4
  %11 = add nsw i32 %10, 1
  store i32 %11, ptr %7, align 4
  %12 = load i32, ptr %6, align 4
  %13 = icmp sge i32 %11, %12
  br i1 %13, label %14, label %16

14:                                               ; preds = %3
  %15 = load i32, ptr %6, align 4
  store i32 %15, ptr %4, align 4
  br label %70

16:                                               ; preds = %3
  %17 = load ptr, ptr %5, align 8
  %18 = load i32, ptr %7, align 4
  %19 = sub nsw i32 %18, 1
  %20 = sext i32 %19 to i64
  %21 = getelementptr inbounds i8, ptr %17, i64 %20
  %22 = load i8, ptr %21, align 1
  store i8 %22, ptr %8, align 1
  %23 = load i8, ptr %8, align 1
  %24 = zext i8 %23 to i32
  switch i32 %24, label %66 [
    i32 66, label %25
    i32 67, label %25
    i32 73, label %25
    i32 83, label %25
    i32 90, label %25
    i32 68, label %25
    i32 70, label %25
    i32 74, label %25
    i32 99, label %25
    i32 115, label %25
    i32 101, label %28
    i32 91, label %31
    i32 64, label %61
  ]

25:                                               ; preds = %16, %16, %16, %16, %16, %16, %16, %16, %16, %16
  %26 = load i32, ptr %7, align 4
  %27 = add nsw i32 %26, 2
  store i32 %27, ptr %7, align 4
  br label %68

28:                                               ; preds = %16
  %29 = load i32, ptr %7, align 4
  %30 = add nsw i32 %29, 4
  store i32 %30, ptr %7, align 4
  br label %68

31:                                               ; preds = %16
  %32 = load i32, ptr %7, align 4
  %33 = add nsw i32 %32, 2
  store i32 %33, ptr %7, align 4
  %34 = load i32, ptr %6, align 4
  %35 = icmp sge i32 %33, %34
  br i1 %35, label %36, label %38

36:                                               ; preds = %31
  %37 = load i32, ptr %6, align 4
  store i32 %37, ptr %4, align 4
  br label %70

38:                                               ; preds = %31
  %39 = load ptr, ptr %5, align 8
  %40 = load i32, ptr %7, align 4
  %41 = sext i32 %40 to i64
  %42 = getelementptr inbounds i8, ptr %39, i64 %41
  %43 = getelementptr inbounds i8, ptr %42, i64 -2
  %44 = call noundef i32 @_ZN12JfrBigEndian4readIitEET_PKv(ptr noundef %43)
  store i32 %44, ptr %9, align 4
  br label %45

45:                                               ; preds = %55, %38
  %46 = load i32, ptr %9, align 4
  %47 = add nsw i32 %46, -1
  store i32 %47, ptr %9, align 4
  %48 = icmp sge i32 %47, 0
  br i1 %48, label %49, label %53

49:                                               ; preds = %45
  %50 = load i32, ptr %7, align 4
  %51 = load i32, ptr %6, align 4
  %52 = icmp slt i32 %50, %51
  br label %53

53:                                               ; preds = %49, %45
  %54 = phi i1 [ false, %45 ], [ %52, %49 ]
  br i1 %54, label %55, label %60

55:                                               ; preds = %53
  %56 = load ptr, ptr %5, align 8
  %57 = load i32, ptr %6, align 4
  %58 = load i32, ptr %7, align 4
  %59 = call noundef i32 @_ZL21skip_annotation_valuePhii(ptr noundef %56, i32 noundef %57, i32 noundef %58)
  store i32 %59, ptr %7, align 4
  br label %45, !llvm.loop !29

60:                                               ; preds = %53
  br label %68

61:                                               ; preds = %16
  %62 = load ptr, ptr %5, align 8
  %63 = load i32, ptr %6, align 4
  %64 = load i32, ptr %7, align 4
  %65 = call noundef i32 @_ZL21next_annotation_indexPhii(ptr noundef %62, i32 noundef %63, i32 noundef %64)
  store i32 %65, ptr %7, align 4
  br label %68

66:                                               ; preds = %16
  %67 = load i32, ptr %6, align 4
  store i32 %67, ptr %4, align 4
  br label %70

68:                                               ; preds = %61, %60, %28, %25
  %69 = load i32, ptr %7, align 4
  store i32 %69, ptr %4, align 4
  br label %70

70:                                               ; preds = %68, %66, %36, %14
  %71 = load i32, ptr %4, align 4
  ret i32 %71
}