; Function Attrs: mustprogress nofree nosync nounwind willreturn memory(argmem: read) uwtable
define internal fastcc noundef i32 @_ZL21skip_annotation_valuePhii(ptr noundef %0, i32 noundef %1, i32 noundef %2) unnamed_addr #11 {
  %4 = add nsw i32 %2, 1
  %.not = icmp slt i32 %4, %1
  br i1 %.not, label %5, label %_ZL21next_annotation_indexPhii.exit

5:                                                ; preds = %3
  %6 = sext i32 %2 to i64
  %7 = getelementptr inbounds i8, ptr %0, i64 %6
  %8 = load i8, ptr %7, align 1
  switch i8 %8, label %_ZL21next_annotation_indexPhii.exit [
    i8 66, label %9
    i8 67, label %9
    i8 73, label %9
    i8 83, label %9
    i8 90, label %9
    i8 68, label %9
    i8 70, label %9
    i8 74, label %9
    i8 99, label %9
    i8 115, label %9
    i8 101, label %11
    i8 91, label %13
    i8 64, label %27
  ]

9:                                                ; preds = %5, %5, %5, %5, %5, %5, %5, %5, %5, %5
  %10 = add nsw i32 %2, 3
  br label %_ZL21next_annotation_indexPhii.exit

11:                                               ; preds = %5
  %12 = add nsw i32 %2, 5
  br label %_ZL21next_annotation_indexPhii.exit

13:                                               ; preds = %5
  %14 = add nsw i32 %2, 3
  %.not31 = icmp slt i32 %14, %1
  br i1 %.not31, label %15, label %_ZL21next_annotation_indexPhii.exit

15:                                               ; preds = %13
  %16 = sext i32 %14 to i64
  %17 = getelementptr inbounds i8, ptr %0, i64 %16
  %18 = getelementptr inbounds i8, ptr %17, i64 -2
  %19 = load i16, ptr %18, align 2
  %.not40 = icmp eq i16 %19, 0
  br i1 %.not40, label %_ZL21next_annotation_indexPhii.exit, label %.lr.ph37.preheader

.lr.ph37.preheader:                               ; preds = %15
  %20 = tail call noundef i16 @llvm.bswap.i16(i16 %19)
  %21 = zext i16 %20 to i32
  br label %.lr.ph37

.lr.ph37:                                         ; preds = %.lr.ph37.preheader, %.lr.ph37
  %.036 = phi i32 [ %22, %.lr.ph37 ], [ %21, %.lr.ph37.preheader ]
  %.02535 = phi i32 [ %23, %.lr.ph37 ], [ %14, %.lr.ph37.preheader ]
  %22 = add nsw i32 %.036, -1
  %23 = tail call fastcc noundef i32 @_ZL21skip_annotation_valuePhii(ptr noundef %0, i32 noundef %1, i32 noundef %.02535)
  %24 = icmp ugt i32 %.036, 1
  %25 = icmp slt i32 %23, %1
  %26 = and i1 %25, %24
  br i1 %26, label %.lr.ph37, label %_ZL21next_annotation_indexPhii.exit, !llvm.loop !36

27:                                               ; preds = %5
  %28 = add nsw i32 %2, 5
  %.not.i = icmp slt i32 %28, %1
  br i1 %.not.i, label %29, label %_ZL21next_annotation_indexPhii.exit

29:                                               ; preds = %27
  %30 = sext i32 %28 to i64
  %31 = getelementptr inbounds i8, ptr %0, i64 %30
  %32 = getelementptr inbounds i8, ptr %31, i64 -2
  %33 = load i16, ptr %32, align 2
  %.not39 = icmp eq i16 %33, 0
  br i1 %.not39, label %_ZL21next_annotation_indexPhii.exit, label %.lr.ph.preheader

.lr.ph.preheader:                                 ; preds = %29
  %34 = tail call noundef i16 @llvm.bswap.i16(i16 %33)
  %35 = zext i16 %34 to i32
  br label %.lr.ph

.lr.ph:                                           ; preds = %.lr.ph.preheader, %.lr.ph
  %.0.i34 = phi i32 [ %36, %.lr.ph ], [ %35, %.lr.ph.preheader ]
  %.014.i33 = phi i32 [ %38, %.lr.ph ], [ %28, %.lr.ph.preheader ]
  %36 = add nsw i32 %.0.i34, -1
  %37 = add nsw i32 %.014.i33, 2
  %38 = tail call fastcc noundef i32 @_ZL21skip_annotation_valuePhii(ptr noundef %0, i32 noundef %1, i32 noundef %37)
  %39 = icmp ugt i32 %.0.i34, 1
  %40 = icmp slt i32 %38, %1
  %41 = and i1 %40, %39
  br i1 %41, label %.lr.ph, label %_ZL21next_annotation_indexPhii.exit, !llvm.loop !33

_ZL21next_annotation_indexPhii.exit:              ; preds = %.lr.ph, %.lr.ph37, %29, %15, %27, %9, %11, %5, %13, %3
  %.024 = phi i32 [ %1, %3 ], [ %1, %13 ], [ %1, %5 ], [ %12, %11 ], [ %10, %9 ], [ %1, %27 ], [ %14, %15 ], [ %28, %29 ], [ %23, %.lr.ph37 ], [ %38, %.lr.ph ]
  ret i32 %.024
}